target datalayout = "e-m:e-p270:32:32-p271:32:32-p272:64:64-i64:64-i128:128-f80:128-n8:16:32:64-S128"
target triple = "x86_64-pc-linux-gnu"

%struct.ForEachState = type { ptr, i32 }
%struct.PlannerInfo = type { i32, ptr, ptr, i32, ptr, ptr, ptr, ptr, i32, ptr, ptr, ptr, ptr, ptr, ptr, ptr, ptr, i32, ptr, ptr, ptr, ptr, ptr, i8, ptr, ptr, ptr, ptr, ptr, i32, ptr, ptr, ptr, ptr, ptr, ptr, ptr, i32, ptr, ptr, ptr, i32, ptr, ptr, ptr, ptr, ptr, ptr, [8 x ptr], [8 x ptr], ptr, ptr, ptr, ptr, ptr, ptr, ptr, double, double, double, i32, i8, i8, i8, i8, i8, i8, i8, i32, ptr, ptr, i32, i8, i8, i32, ptr, ptr, ptr, ptr, ptr, ptr, i8, ptr }
%struct.Query = type { i32, i32, i32, i64, i8, ptr, i32, i8, i8, i8, i8, i8, i8, i8, i8, i8, i8, i8, ptr, ptr, ptr, ptr, ptr, i32, ptr, ptr, i32, ptr, ptr, ptr, ptr, ptr, i8, ptr, ptr, ptr, ptr, ptr, ptr, ptr, i32, ptr, ptr, ptr, ptr, i32, i32 }
%struct.List = type { i32, i32, i32, ptr, [0 x %union.ListCell] }
%union.ListCell = type { ptr }
%struct.AppendRelInfo = type { i32, i32, i32, i32, i32, ptr, i32, ptr, i32 }

@.str = private unnamed_addr constant [30 x i8] c"child relation already exists\00", align 1
@.str.1 = private unnamed_addr constant [10 x i8] c"relnode.c\00", align 1
@__func__.setup_simple_rel_arrays = private unnamed_addr constant [24 x i8] c"setup_simple_rel_arrays\00", align 1

; Function Attrs: inlinehint nounwind uwtable
define internal i32 @list_length(ptr noundef %0) #2 {
  %2 = alloca ptr, align 8
  store ptr %0, ptr %2, align 8
  %3 = load ptr, ptr %2, align 8
  %4 = icmp ne ptr %3, null
  br i1 %4, label %5, label %9

5:                                                ; preds = %1
  %6 = load ptr, ptr %2, align 8
  %7 = getelementptr inbounds nuw %struct.List, ptr %6, i32 0, i32 1
  %8 = load i32, ptr %7, align 4
  br label %10

9:                                                ; preds = %1
  br label %10

10:                                               ; preds = %9, %5
  %11 = phi i32 [ %8, %5 ], [ 0, %9 ]
  ret i32 %11
}

; Function Attrs: nounwind uwtable
define dso_local void @setup_simple_rel_arrays(ptr noundef %0) #0 {
  %2 = alloca ptr, align 8
  %3 = alloca i32, align 4
  %4 = alloca i32, align 4
  %5 = alloca ptr, align 8
  %6 = alloca %struct.ForEachState, align 8
  %7 = alloca ptr, align 8
  %8 = alloca i32, align 4
  %9 = alloca %struct.ForEachState, align 8
  %10 = alloca ptr, align 8
  %11 = alloca i32, align 4
  store ptr %0, ptr %2, align 8
  call void @llvm.lifetime.start.p0(i64 4, ptr %3) #6
  call void @llvm.lifetime.start.p0(i64 4, ptr %4) #6
  call void @llvm.lifetime.start.p0(i64 8, ptr %5) #6
  %12 = load ptr, ptr %2, align 8
  %13 = getelementptr inbounds nuw %struct.PlannerInfo, ptr %12, i32 0, i32 1
  %14 = load ptr, ptr %13, align 8
  %15 = getelementptr inbounds nuw %struct.Query, ptr %14, i32 0, i32 19
  %16 = load ptr, ptr %15, align 8
  %17 = call i32 @list_length(ptr noundef %16)
  %18 = add i32 %17, 1
  store i32 %18, ptr %3, align 4
  %19 = load i32, ptr %3, align 4
  %20 = load ptr, ptr %2, align 8
  %21 = getelementptr inbounds nuw %struct.PlannerInfo, ptr %20, i32 0, i32 8
  store i32 %19, ptr %21, align 8
  %22 = load i32, ptr %3, align 4
  %23 = sext i32 %22 to i64
  %24 = mul i64 %23, 8
  %25 = call ptr @palloc0(i64 noundef %24)
  %26 = load ptr, ptr %2, align 8
  %27 = getelementptr inbounds nuw %struct.PlannerInfo, ptr %26, i32 0, i32 7
  store ptr %25, ptr %27, align 8
  %28 = load i32, ptr %3, align 4
  %29 = sext i32 %28 to i64
  %30 = mul i64 %29, 8
  %31 = call ptr @palloc0(i64 noundef %30)
  %32 = load ptr, ptr %2, align 8
  %33 = getelementptr inbounds nuw %struct.PlannerInfo, ptr %32, i32 0, i32 9
  store ptr %31, ptr %33, align 8
  store i32 1, ptr %4, align 4
  call void @llvm.lifetime.start.p0(i64 16, ptr %6) #6
  %34 = getelementptr inbounds nuw %struct.ForEachState, ptr %6, i32 0, i32 0
  %35 = load ptr, ptr %2, align 8
  %36 = getelementptr inbounds nuw %struct.PlannerInfo, ptr %35, i32 0, i32 1
  %37 = load ptr, ptr %36, align 8
  %38 = getelementptr inbounds nuw %struct.Query, ptr %37, i32 0, i32 19
  %39 = load ptr, ptr %38, align 8
  store ptr %39, ptr %34, align 8
  %40 = getelementptr inbounds nuw %struct.ForEachState, ptr %6, i32 0, i32 1
  store i32 0, ptr %40, align 8
  %41 = getelementptr i8, ptr %6, i64 12
  call void @llvm.memset.p0.i64(ptr align 4 %41, i8 0, i64 4, i1 false)
  br label %42

42:                                               ; preds = %79, %1
  %43 = getelementptr inbounds nuw %struct.ForEachState, ptr %6, i32 0, i32 0
  %44 = load ptr, ptr %43, align 8
  %45 = icmp ne ptr %44, null
  br i1 %45, label %46, label %63

46:                                               ; preds = %42
  %47 = getelementptr inbounds nuw %struct.ForEachState, ptr %6, i32 0, i32 1
  %48 = load i32, ptr %47, align 8
  %49 = getelementptr inbounds nuw %struct.ForEachState, ptr %6, i32 0, i32 0
  %50 = load ptr, ptr %49, align 8
  %51 = getelementptr inbounds nuw %struct.List, ptr %50, i32 0, i32 1
  %52 = load i32, ptr %51, align 4
  %53 = icmp slt i32 %48, %52
  br i1 %53, label %54, label %63

54:                                               ; preds = %46
  %55 = getelementptr inbounds nuw %struct.ForEachState, ptr %6, i32 0, i32 0
  %56 = load ptr, ptr %55, align 8
  %57 = getelementptr inbounds nuw %struct.List, ptr %56, i32 0, i32 3
  %58 = load ptr, ptr %57, align 8
  %59 = getelementptr inbounds nuw %struct.ForEachState, ptr %6, i32 0, i32 1
  %60 = load i32, ptr %59, align 8
  %61 = sext i32 %60 to i64
  %62 = getelementptr inbounds %union.ListCell, ptr %58, i64 %61
  store ptr %62, ptr %5, align 8
  br label %64

63:                                               ; preds = %46, %42
  store ptr null, ptr %5, align 8
  br label %64

64:                                               ; preds = %63, %54
  %65 = phi i32 [ 1, %54 ], [ 0, %63 ]
  %66 = icmp ne i32 %65, 0
  br i1 %66, label %68, label %67

67:                                               ; preds = %64
  call void @llvm.lifetime.end.p0(i64 16, ptr %6) #6
  br label %83

68:                                               ; preds = %64
  call void @llvm.lifetime.start.p0(i64 8, ptr %7) #6
  %69 = load ptr, ptr %5, align 8
  %70 = load ptr, ptr %69, align 8
  store ptr %70, ptr %7, align 8
  %71 = load ptr, ptr %7, align 8
  %72 = load ptr, ptr %2, align 8
  %73 = getelementptr inbounds nuw %struct.PlannerInfo, ptr %72, i32 0, i32 9
  %74 = load ptr, ptr %73, align 8
  %75 = load i32, ptr %4, align 4
  %76 = add i32 %75, 1
  store i32 %76, ptr %4, align 4
  %77 = zext i32 %75 to i64
  %78 = getelementptr inbounds nuw ptr, ptr %74, i64 %77
  store ptr %71, ptr %78, align 8
  call void @llvm.lifetime.end.p0(i64 8, ptr %7) #6
  br label %79

79:                                               ; preds = %68
  %80 = getelementptr inbounds nuw %struct.ForEachState, ptr %6, i32 0, i32 1
  %81 = load i32, ptr %80, align 8
  %82 = add i32 %81, 1
  store i32 %82, ptr %80, align 8
  br label %42, !llvm.loop !4

83:                                               ; preds = %67
  %84 = load ptr, ptr %2, align 8
  %85 = getelementptr inbounds nuw %struct.PlannerInfo, ptr %84, i32 0, i32 32
  %86 = load ptr, ptr %85, align 8
  %87 = icmp eq ptr %86, null
  br i1 %87, label %88, label %91

88:                                               ; preds = %83
  %89 = load ptr, ptr %2, align 8
  %90 = getelementptr inbounds nuw %struct.PlannerInfo, ptr %89, i32 0, i32 10
  store ptr null, ptr %90, align 8
  store i32 1, ptr %8, align 4
  br label %168

91:                                               ; preds = %83
  %92 = load i32, ptr %3, align 4
  %93 = sext i32 %92 to i64
  %94 = mul i64 %93, 8
  %95 = call ptr @palloc0(i64 noundef %94)
  %96 = load ptr, ptr %2, align 8
  %97 = getelementptr inbounds nuw %struct.PlannerInfo, ptr %96, i32 0, i32 10
  store ptr %95, ptr %97, align 8
  call void @llvm.lifetime.start.p0(i64 16, ptr %9) #6
  %98 = getelementptr inbounds nuw %struct.ForEachState, ptr %9, i32 0, i32 0
  %99 = load ptr, ptr %2, align 8
  %100 = getelementptr inbounds nuw %struct.PlannerInfo, ptr %99, i32 0, i32 32
  %101 = load ptr, ptr %100, align 8
  store ptr %101, ptr %98, align 8
  %102 = getelementptr inbounds nuw %struct.ForEachState, ptr %9, i32 0, i32 1
  store i32 0, ptr %102, align 8
  %103 = getelementptr i8, ptr %9, i64 12
  call void @llvm.memset.p0.i64(ptr align 4 %103, i8 0, i64 4, i1 false)
  br label %104

104:                                              ; preds = %163, %91
  %105 = getelementptr inbounds nuw %struct.ForEachState, ptr %9, i32 0, i32 0
  %106 = load ptr, ptr %105, align 8
  %107 = icmp ne ptr %106, null
  br i1 %107, label %108, label %125

108:                                              ; preds = %104
  %109 = getelementptr inbounds nuw %struct.ForEachState, ptr %9, i32 0, i32 1
  %110 = load i32, ptr %109, align 8
  %111 = getelementptr inbounds nuw %struct.ForEachState, ptr %9, i32 0, i32 0
  %112 = load ptr, ptr %111, align 8
  %113 = getelementptr inbounds nuw %struct.List, ptr %112, i32 0, i32 1
  %114 = load i32, ptr %113, align 4
  %115 = icmp slt i32 %110, %114
  br i1 %115, label %116, label %125

116:                                              ; preds = %108
  %117 = getelementptr inbounds nuw %struct.ForEachState, ptr %9, i32 0, i32 0
  %118 = load ptr, ptr %117, align 8
  %119 = getelementptr inbounds nuw %struct.List, ptr %118, i32 0, i32 3
  %120 = load ptr, ptr %119, align 8
  %121 = getelementptr inbounds nuw %struct.ForEachState, ptr %9, i32 0, i32 1
  %122 = load i32, ptr %121, align 8
  %123 = sext i32 %122 to i64
  %124 = getelementptr inbounds %union.ListCell, ptr %120, i64 %123
  store ptr %124, ptr %5, align 8
  br label %126

125:                                              ; preds = %108, %104
  store ptr null, ptr %5, align 8
  br label %126

126:                                              ; preds = %125, %116
  %127 = phi i32 [ 1, %116 ], [ 0, %125 ]
  %128 = icmp ne i32 %127, 0
  br i1 %128, label %130, label %129

129:                                              ; preds = %126
  store i32 5, ptr %8, align 4
  call void @llvm.lifetime.end.p0(i64 16, ptr %9) #6
  br label %167

130:                                              ; preds = %126
  call void @llvm.lifetime.start.p0(i64 8, ptr %10) #6
  %131 = load ptr, ptr %5, align 8
  %132 = load ptr, ptr %131, align 8
  store ptr %132, ptr %10, align 8
  call void @llvm.lifetime.start.p0(i64 4, ptr %11) #6
  %133 = load ptr, ptr %10, align 8
  %134 = getelementptr inbounds nuw %struct.AppendRelInfo, ptr %133, i32 0, i32 2
  %135 = load i32, ptr %134, align 8
  store i32 %135, ptr %11, align 4
  %136 = load ptr, ptr %2, align 8
  %137 = getelementptr inbounds nuw %struct.PlannerInfo, ptr %136, i32 0, i32 10
  %138 = load ptr, ptr %137, align 8
  %139 = load i32, ptr %11, align 4
  %140 = sext i32 %139 to i64
  %141 = getelementptr inbounds ptr, ptr %138, i64 %140
  %142 = load ptr, ptr %141, align 8
  %143 = icmp ne ptr %142, null
  br i1 %143, label %144, label %155

144:                                              ; preds = %130
  br label %145

145:                                              ; preds = %144
  br i1 true, label %146, label %148

146:                                              ; preds = %145
  %147 = call zeroext i1 @errstart_cold(i32 noundef 21, ptr noundef null) #7
  br i1 %147, label %150, label %152

148:                                              ; preds = %145
  %149 = call zeroext i1 @errstart(i32 noundef 21, ptr noundef null)
  br i1 %149, label %150, label %152

150:                                              ; preds = %148, %146
  %151 = call i32 (ptr, ...) @errmsg_internal(ptr noundef @.str)
  call void @errfinish(ptr noundef @.str.1, i32 noundef 147, ptr noundef @__func__.setup_simple_rel_arrays)
  br label %152

152:                                              ; preds = %150, %148, %146
  unreachable

153:                                              ; No predecessors!
  br label %154

154:                                              ; preds = %153
  br label %155

155:                                              ; preds = %154, %130
  %156 = load ptr, ptr %10, align 8
  %157 = load ptr, ptr %2, align 8
  %158 = getelementptr inbounds nuw %struct.PlannerInfo, ptr %157, i32 0, i32 10
  %159 = load ptr, ptr %158, align 8
  %160 = load i32, ptr %11, align 4
  %161 = sext i32 %160 to i64
  %162 = getelementptr inbounds ptr, ptr %159, i64 %161
  store ptr %156, ptr %162, align 8
  call void @llvm.lifetime.end.p0(i64 4, ptr %11) #6
  call void @llvm.lifetime.end.p0(i64 8, ptr %10) #6
  br label %163

163:                                              ; preds = %155
  %164 = getelementptr inbounds nuw %struct.ForEachState, ptr %9, i32 0, i32 1
  %165 = load i32, ptr %164, align 8
  %166 = add i32 %165, 1
  store i32 %166, ptr %164, align 8
  br label %104, !llvm.loop !6

167:                                              ; preds = %129
  store i32 0, ptr %8, align 4
  br label %168

168:                                              ; preds = %167, %88
  call void @llvm.lifetime.end.p0(i64 8, ptr %5) #6
  call void @llvm.lifetime.end.p0(i64 4, ptr %4) #6
  call void @llvm.lifetime.end.p0(i64 4, ptr %3) #6
  %169 = load i32, ptr %8, align 4
  switch i32 %169, label %171 [
    i32 0, label %170
    i32 1, label %170
  ]

170:                                              ; preds = %168, %168
  ret void

171:                                              ; preds = %168
  unreachable
}