; Function Attrs: nounwind uwtable
define dso_local void @setup_simple_rel_arrays(ptr noundef captures(none) initializes((56, 68), (72, 80)) %0) local_unnamed_addr #0 {
  %2 = getelementptr inbounds nuw i8, ptr %0, i64 8
  %3 = load ptr, ptr %2, align 8
  %4 = getelementptr inbounds nuw i8, ptr %3, i64 64
  %5 = load ptr, ptr %4, align 8
  %.not.i = icmp eq ptr %5, null
  br i1 %.not.i, label %list_length.exit, label %6

6:                                                ; preds = %1
  %7 = getelementptr inbounds nuw i8, ptr %5, i64 4
  %8 = load i32, ptr %7, align 4
  %9 = add i32 %8, 1
  br label %list_length.exit

list_length.exit:                                 ; preds = %1, %6
  %10 = phi i32 [ %9, %6 ], [ 1, %1 ]
  %11 = getelementptr inbounds nuw i8, ptr %0, i64 64
  store i32 %10, ptr %11, align 8
  %12 = sext i32 %10 to i64
  %13 = shl nsw i64 %12, 3
  %14 = tail call ptr @palloc0(i64 noundef %13) #7
  %15 = getelementptr inbounds nuw i8, ptr %0, i64 56
  store ptr %14, ptr %15, align 8
  %16 = tail call ptr @palloc0(i64 noundef %13) #7
  %17 = getelementptr inbounds nuw i8, ptr %0, i64 72
  store ptr %16, ptr %17, align 8
  %18 = load ptr, ptr %2, align 8
  %19 = getelementptr inbounds nuw i8, ptr %18, i64 64
  %20 = load ptr, ptr %19, align 8
  %21 = getelementptr inbounds nuw i8, ptr %20, i64 4
  %.not = icmp eq ptr %20, null
  br i1 %.not, label %._crit_edge, label %.lr.ph

.lr.ph:                                           ; preds = %list_length.exit
  %22 = getelementptr inbounds nuw i8, ptr %20, i64 16
  %23 = load i32, ptr %21, align 4
  %24 = icmp sgt i32 %23, 0
  br i1 %24, label %.lr.ph52, label %._crit_edge

._crit_edge:                                      ; preds = %.lr.ph52, %.lr.ph, %list_length.exit
  %25 = getelementptr inbounds nuw i8, ptr %0, i64 256
  %26 = load ptr, ptr %25, align 8
  %27 = icmp eq ptr %26, null
  br i1 %27, label %36, label %38

.lr.ph52:                                         ; preds = %.lr.ph, %.lr.ph52
  %indvars.iv59 = phi i64 [ %indvars.iv.next60, %.lr.ph52 ], [ 1, %.lr.ph ]
  %indvars.iv = phi i64 [ %indvars.iv.next, %.lr.ph52 ], [ 0, %.lr.ph ]
  %28 = load ptr, ptr %22, align 8
  %29 = getelementptr inbounds nuw %union.ListCell, ptr %28, i64 %indvars.iv
  %30 = load ptr, ptr %29, align 8
  %31 = load ptr, ptr %17, align 8
  %indvars.iv.next60 = add nuw nsw i64 %indvars.iv59, 1
  %32 = getelementptr inbounds nuw ptr, ptr %31, i64 %indvars.iv59
  store ptr %30, ptr %32, align 8
  %indvars.iv.next = add nuw nsw i64 %indvars.iv, 1
  %33 = load i32, ptr %21, align 4
  %34 = sext i32 %33 to i64
  %35 = icmp slt i64 %indvars.iv.next, %34
  br i1 %35, label %.lr.ph52, label %._crit_edge

36:                                               ; preds = %._crit_edge
  %37 = getelementptr inbounds nuw i8, ptr %0, i64 80
  store ptr null, ptr %37, align 8
  br label %.thread44

38:                                               ; preds = %._crit_edge
  %39 = tail call ptr @palloc0(i64 noundef %13) #7
  %40 = getelementptr inbounds nuw i8, ptr %0, i64 80
  store ptr %39, ptr %40, align 8
  %41 = load ptr, ptr %25, align 8
  %.not38 = icmp eq ptr %41, null
  br i1 %.not38, label %.thread44, label %.lr.ph55

.lr.ph55:                                         ; preds = %38
  %42 = getelementptr inbounds nuw i8, ptr %41, i64 4
  %43 = getelementptr inbounds nuw i8, ptr %41, i64 16
  %44 = load i32, ptr %42, align 4
  %45 = icmp sgt i32 %44, 0
  br i1 %45, label %.lr.ph58, label %.thread44

.lr.ph58:                                         ; preds = %.lr.ph55, %57
  %indvars.iv64 = phi i64 [ %indvars.iv.next65, %57 ], [ 0, %.lr.ph55 ]
  %46 = load ptr, ptr %43, align 8
  %47 = getelementptr inbounds nuw %union.ListCell, ptr %46, i64 %indvars.iv64
  %48 = load ptr, ptr %47, align 8
  %49 = getelementptr inbounds nuw i8, ptr %48, i64 8
  %50 = load i32, ptr %49, align 8
  %51 = load ptr, ptr %40, align 8
  %52 = sext i32 %50 to i64
  %53 = getelementptr inbounds ptr, ptr %51, i64 %52
  %54 = load ptr, ptr %53, align 8
  %.not40 = icmp eq ptr %54, null
  br i1 %.not40, label %57, label %.split

.split:                                           ; preds = %.lr.ph58
  %55 = tail call zeroext i1 @errstart_cold(i32 noundef 21, ptr noundef null) #8
  tail call void @llvm.assume(i1 %55)
  %56 = tail call i32 (ptr, ...) @errmsg_internal(ptr noundef nonnull @.str) #7
  tail call void @errfinish(ptr noundef nonnull @.str.1, i32 noundef 147, ptr noundef nonnull @__func__.setup_simple_rel_arrays) #7
  unreachable

57:                                               ; preds = %.lr.ph58
  store ptr %48, ptr %53, align 8
  %indvars.iv.next65 = add nuw nsw i64 %indvars.iv64, 1
  %58 = load i32, ptr %42, align 4
  %59 = sext i32 %58 to i64
  %60 = icmp slt i64 %indvars.iv.next65, %59
  br i1 %60, label %.lr.ph58, label %.thread44

.thread44:                                        ; preds = %57, %38, %.lr.ph55, %36
  ret void
}